; Function Attrs: mustprogress uwtable
define range(i32 0, 2) i32 @ImfHeaderFloatAttribute(ptr noundef nonnull %0, ptr noundef %1, ptr noundef writeonly captures(none) %2) local_unnamed_addr #8 personality ptr @__gxx_personality_v0 {
  %4 = invoke noundef nonnull align 8 dereferenceable(8) ptr @_ZNK7Imf_3_46HeaderixEPKc(ptr noundef nonnull align 8 dereferenceable(49) %0, ptr noundef %1)
          to label %.noexc unwind label %14

.noexc:                                           ; preds = %3
  %5 = tail call ptr @__dynamic_cast(ptr nonnull %4, ptr nonnull @_ZTIN7Imf_3_49AttributeE, ptr nonnull @_ZTIN7Imf_3_414TypedAttributeIfEE, i64 0) #24
  %6 = icmp eq ptr %5, null
  br i1 %6, label %7, label %_ZNK7Imf_3_46Header14typedAttributeINS_14TypedAttributeIfEEEERKT_PKc.exit

7:                                                ; preds = %.noexc
  %8 = tail call ptr @__cxa_allocate_exception(i64 72) #24
  invoke void @_ZN7Iex_3_47TypeExcC1EPKc(ptr noundef nonnull align 8 dereferenceable(72) %8, ptr noundef nonnull @.str)
          to label %9 unwind label %10

9:                                                ; preds = %7
  invoke void @__cxa_throw(ptr nonnull %8, ptr nonnull @_ZTIN7Iex_3_47TypeExcE, ptr nonnull @_ZN7Iex_3_47TypeExcD1Ev) #26
          to label %.noexc8 unwind label %14

.noexc8:                                          ; preds = %9
  unreachable

10:                                               ; preds = %7
  %11 = landingpad { ptr, i32 }
          cleanup
          catch ptr @_ZTISt9exception
  tail call void @__cxa_free_exception(ptr nonnull %8) #24
  br label %.body

_ZNK7Imf_3_46Header14typedAttributeINS_14TypedAttributeIfEEEERKT_PKc.exit: ; preds = %.noexc
  %12 = getelementptr inbounds nuw i8, ptr %5, i64 8
  %13 = load float, ptr %12, align 4, !tbaa !8
  store float %13, ptr %2, align 4, !tbaa !8
  br label %27

14:                                               ; preds = %9, %3
  %15 = landingpad { ptr, i32 }
          catch ptr @_ZTISt9exception
  br label %.body

.body:                                            ; preds = %10, %14
  %eh.lpad-body = phi { ptr, i32 } [ %15, %14 ], [ %11, %10 ]
  %16 = extractvalue { ptr, i32 } %eh.lpad-body, 1
  %17 = tail call i32 @llvm.eh.typeid.for.p0(ptr nonnull @_ZTISt9exception) #24
  %18 = icmp eq i32 %16, %17
  br i1 %18, label %19, label %28

19:                                               ; preds = %.body
  %20 = extractvalue { ptr, i32 } %eh.lpad-body, 0
  %21 = tail call ptr @__cxa_begin_catch(ptr %20) #24
  %22 = load ptr, ptr %21, align 8, !tbaa !22
  %23 = getelementptr inbounds nuw i8, ptr %22, i64 16
  %24 = load ptr, ptr %23, align 8
  %25 = tail call noundef ptr %24(ptr noundef nonnull align 8 dereferenceable(8) %21) #24
  %26 = tail call ptr @strncpy(ptr noundef nonnull dereferenceable(1) @_ZN12_GLOBAL__N_112errorMessageE, ptr noundef nonnull dereferenceable(1) %25, i64 noundef 1023) #24
  store i8 0, ptr getelementptr inbounds nuw (i8, ptr @_ZN12_GLOBAL__N_112errorMessageE, i64 1023), align 1, !tbaa !15
  tail call void @__cxa_end_catch()
  br label %27

27:                                               ; preds = %19, %_ZNK7Imf_3_46Header14typedAttributeINS_14TypedAttributeIfEEEERKT_PKc.exit
  %.0 = phi i32 [ 1, %_ZNK7Imf_3_46Header14typedAttributeINS_14TypedAttributeIfEEEERKT_PKc.exit ], [ 0, %19 ]
  ret i32 %.0

28:                                               ; preds = %.body
  resume { ptr, i32 } %eh.lpad-body
}